target datalayout = "e-m:e-p270:32:32-p271:32:32-p272:64:64-i64:64-i128:128-f80:128-n8:16:32:64-S128"
target triple = "x86_64-pc-linux-gnu"

%struct.loopargs_st = type { ptr, ptr, ptr, ptr, ptr, ptr, ptr, [16 x i8], i64, i64, i64, [7 x ptr], [7 x ptr], [7 x ptr], [7 x ptr], [2 x ptr], [2 x ptr], [22 x ptr], [22 x ptr], [24 x ptr], [2 x ptr], [2 x ptr], [1 x ptr], [1 x ptr], [1 x ptr], ptr, ptr, [24 x i64], [5 x ptr], ptr, ptr, ptr, ptr, [111 x ptr], [111 x ptr], [111 x ptr], [111 x i64], [111 x i64], [111 x ptr], [111 x ptr], [111 x ptr], [111 x ptr], [111 x ptr], [111 x ptr], [111 x i64], [111 x i64], [111 x ptr] }

@bio_err = external global ptr, align 8
@testmode = internal global i32 0, align 4
@testnum = internal global i32 0, align 4
@testmoderesult = internal global i32 0, align 4
@run = internal global i32 0, align 4
@.str.458 = private unnamed_addr constant [25 x i8] c"EdDSA sign init failure\0A\00", align 1
@.str.459 = private unnamed_addr constant [20 x i8] c"EdDSA sign failure\0A\00", align 1

; Function Attrs: nounwind uwtable
define internal void @dofail() #0 {
  %1 = load ptr, ptr @bio_err, align 8, !tbaa !53
  call void @ERR_print_errors(ptr noundef %1)
  store i32 1, ptr @testmoderesult, align 4, !tbaa !4
  ret void
}

; Function Attrs: nounwind uwtable
define internal i32 @EdDSA_sign_loop(ptr noundef %0) #0 {
  %2 = alloca ptr, align 8
  %3 = alloca ptr, align 8
  %4 = alloca ptr, align 8
  %5 = alloca ptr, align 8
  %6 = alloca ptr, align 8
  %7 = alloca ptr, align 8
  %8 = alloca i32, align 4
  %9 = alloca i32, align 4
  store ptr %0, ptr %2, align 8, !tbaa !115
  call void @llvm.lifetime.start.p0(i64 8, ptr %3) #11
  %10 = load ptr, ptr %2, align 8, !tbaa !115
  %11 = load ptr, ptr %10, align 8, !tbaa !37
  store ptr %11, ptr %3, align 8, !tbaa !37
  call void @llvm.lifetime.start.p0(i64 8, ptr %4) #11
  %12 = load ptr, ptr %3, align 8, !tbaa !37
  %13 = getelementptr inbounds nuw %struct.loopargs_st, ptr %12, i32 0, i32 2
  %14 = load ptr, ptr %13, align 8, !tbaa !92
  store ptr %14, ptr %4, align 8, !tbaa !39
  call void @llvm.lifetime.start.p0(i64 8, ptr %5) #11
  %15 = load ptr, ptr %3, align 8, !tbaa !37
  %16 = getelementptr inbounds nuw %struct.loopargs_st, ptr %15, i32 0, i32 20
  %17 = getelementptr inbounds [2 x ptr], ptr %16, i64 0, i64 0
  store ptr %17, ptr %5, align 8, !tbaa !285
  call void @llvm.lifetime.start.p0(i64 8, ptr %6) #11
  %18 = load ptr, ptr %3, align 8, !tbaa !37
  %19 = getelementptr inbounds nuw %struct.loopargs_st, ptr %18, i32 0, i32 3
  %20 = load ptr, ptr %19, align 8, !tbaa !93
  store ptr %20, ptr %6, align 8, !tbaa !39
  call void @llvm.lifetime.start.p0(i64 8, ptr %7) #11
  %21 = load ptr, ptr %3, align 8, !tbaa !37
  %22 = getelementptr inbounds nuw %struct.loopargs_st, ptr %21, i32 0, i32 9
  store ptr %22, ptr %7, align 8, !tbaa !270
  call void @llvm.lifetime.start.p0(i64 4, ptr %8) #11
  call void @llvm.lifetime.start.p0(i64 4, ptr %9) #11
  store i32 0, ptr %9, align 4, !tbaa !4
  br label %23

23:                                               ; preds = %62, %1
  %24 = load volatile i32, ptr @run, align 4, !tbaa !4
  %25 = icmp ne i32 %24, 0
  br i1 %25, label %26, label %32

26:                                               ; preds = %23
  %27 = load i32, ptr %9, align 4, !tbaa !4
  %28 = load i32, ptr @testmode, align 4, !tbaa !4
  %29 = icmp ne i32 %28, 0
  %30 = select i1 %29, i32 1, i32 2147483647
  %31 = icmp slt i32 %27, %30
  br label %32

32:                                               ; preds = %26, %23
  %33 = phi i1 [ false, %23 ], [ %31, %26 ]
  br i1 %33, label %34, label %65

34:                                               ; preds = %32
  %35 = load ptr, ptr %5, align 8, !tbaa !285
  %36 = load i32, ptr @testnum, align 4, !tbaa !4
  %37 = zext i32 %36 to i64
  %38 = getelementptr inbounds nuw ptr, ptr %35, i64 %37
  %39 = load ptr, ptr %38, align 8, !tbaa !169
  %40 = call i32 @EVP_DigestSignInit(ptr noundef %39, ptr noundef null, ptr noundef null, ptr noundef null, ptr noundef null)
  store i32 %40, ptr %8, align 4, !tbaa !4
  %41 = load i32, ptr %8, align 4, !tbaa !4
  %42 = icmp eq i32 %41, 0
  br i1 %42, label %43, label %46

43:                                               ; preds = %34
  %44 = load ptr, ptr @bio_err, align 8, !tbaa !53
  %45 = call i32 (ptr, ptr, ...) @BIO_printf(ptr noundef %44, ptr noundef @.str.458)
  call void @dofail()
  store i32 -1, ptr %9, align 4, !tbaa !4
  br label %65

46:                                               ; preds = %34
  %47 = load ptr, ptr %5, align 8, !tbaa !285
  %48 = load i32, ptr @testnum, align 4, !tbaa !4
  %49 = zext i32 %48 to i64
  %50 = getelementptr inbounds nuw ptr, ptr %47, i64 %49
  %51 = load ptr, ptr %50, align 8, !tbaa !169
  %52 = load ptr, ptr %6, align 8, !tbaa !39
  %53 = load ptr, ptr %7, align 8, !tbaa !270
  %54 = load ptr, ptr %4, align 8, !tbaa !39
  %55 = call i32 @EVP_DigestSign(ptr noundef %51, ptr noundef %52, ptr noundef %53, ptr noundef %54, i64 noundef 20)
  store i32 %55, ptr %8, align 4, !tbaa !4
  %56 = load i32, ptr %8, align 4, !tbaa !4
  %57 = icmp eq i32 %56, 0
  br i1 %57, label %58, label %61

58:                                               ; preds = %46
  %59 = load ptr, ptr @bio_err, align 8, !tbaa !53
  %60 = call i32 (ptr, ptr, ...) @BIO_printf(ptr noundef %59, ptr noundef @.str.459)
  call void @dofail()
  store i32 -1, ptr %9, align 4, !tbaa !4
  br label %65

61:                                               ; preds = %46
  br label %62

62:                                               ; preds = %61
  %63 = load i32, ptr %9, align 4, !tbaa !4
  %64 = add nsw i32 %63, 1
  store i32 %64, ptr %9, align 4, !tbaa !4
  br label %23, !llvm.loop !287

65:                                               ; preds = %58, %43, %32
  %66 = load i32, ptr %9, align 4, !tbaa !4
  call void @llvm.lifetime.end.p0(i64 4, ptr %9) #11
  call void @llvm.lifetime.end.p0(i64 4, ptr %8) #11
  call void @llvm.lifetime.end.p0(i64 8, ptr %7) #11
  call void @llvm.lifetime.end.p0(i64 8, ptr %6) #11
  call void @llvm.lifetime.end.p0(i64 8, ptr %5) #11
  call void @llvm.lifetime.end.p0(i64 8, ptr %4) #11
  call void @llvm.lifetime.end.p0(i64 8, ptr %3) #11
  ret i32 %66
}