; Function Attrs: nounwind uwtable
define internal i32 @EdDSA_sign_loop(ptr noundef readonly captures(none) %0) #0 {
  %2 = load ptr, ptr %0, align 8, !tbaa !189
  %3 = getelementptr inbounds nuw i8, ptr %2, i64 16
  %4 = load ptr, ptr %3, align 8, !tbaa !53
  %5 = getelementptr inbounds nuw i8, ptr %2, i64 896
  %6 = getelementptr inbounds nuw i8, ptr %2, i64 24
  %7 = load ptr, ptr %6, align 8, !tbaa !54
  %8 = getelementptr inbounds nuw i8, ptr %2, i64 80
  %9 = load volatile i32, ptr @run, align 4, !tbaa !13
  %.not16 = icmp eq i32 %9, 0
  br i1 %.not16, label %.critedge, label %.lr.ph

.lr.ph:                                           ; preds = %1, %26
  %.017 = phi i32 [ %27, %26 ], [ 0, %1 ]
  %.b = load i1, ptr @testmode, align 4
  %10 = select i1 %.b, i32 1, i32 2147483647
  %11 = icmp samesign ult i32 %.017, %10
  br i1 %11, label %12, label %.critedge

12:                                               ; preds = %.lr.ph
  %13 = load i32, ptr @testnum, align 4, !tbaa !13
  %14 = zext i32 %13 to i64
  %15 = getelementptr inbounds nuw ptr, ptr %5, i64 %14
  %16 = load ptr, ptr %15, align 8, !tbaa !132
  %17 = tail call i32 @EVP_DigestSignInit(ptr noundef %16, ptr noundef null, ptr noundef null, ptr noundef null, ptr noundef null) #14
  %18 = icmp eq i32 %17, 0
  br i1 %18, label %.critedge.sink.split, label %19

19:                                               ; preds = %12
  %20 = load i32, ptr @testnum, align 4, !tbaa !13
  %21 = zext i32 %20 to i64
  %22 = getelementptr inbounds nuw ptr, ptr %5, i64 %21
  %23 = load ptr, ptr %22, align 8, !tbaa !132
  %24 = tail call i32 @EVP_DigestSign(ptr noundef %23, ptr noundef %7, ptr noundef nonnull %8, ptr noundef %4, i64 noundef 20) #14
  %25 = icmp eq i32 %24, 0
  br i1 %25, label %.critedge.sink.split, label %26

26:                                               ; preds = %19
  %27 = add nuw nsw i32 %.017, 1
  %28 = load volatile i32, ptr @run, align 4, !tbaa !13
  %.not = icmp eq i32 %28, 0
  br i1 %.not, label %.critedge, label %.lr.ph, !llvm.loop !226

.critedge.sink.split:                             ; preds = %19, %12
  %.str.459.sink = phi ptr [ @.str.458, %12 ], [ @.str.459, %19 ]
  %29 = load ptr, ptr @bio_err, align 8, !tbaa !19
  %30 = tail call i32 (ptr, ptr, ...) @BIO_printf(ptr noundef %29, ptr noundef nonnull %.str.459.sink) #14
  %31 = load ptr, ptr @bio_err, align 8, !tbaa !19
  tail call void @ERR_print_errors(ptr noundef %31) #14
  store i1 true, ptr @testmoderesult, align 4
  br label %.critedge

.critedge:                                        ; preds = %.lr.ph, %26, %.critedge.sink.split, %1
  %.1 = phi i32 [ 0, %1 ], [ -1, %.critedge.sink.split ], [ %.017, %.lr.ph ], [ %27, %26 ]
  ret i32 %.1
}